target datalayout = "e-m:e-p270:32:32-p271:32:32-p272:64:64-i64:64-i128:128-f80:128-n8:16:32:64-S128"
target triple = "x86_64-pc-linux-gnu"

%"class.llvm::Register" = type { i32 }
%"class.llvm::SmallVectorBase" = type { ptr, i32, i32 }
%"class.llvm::LiveInterval" = type { %"class.llvm::LiveRange", ptr, %"class.llvm::Register", float }
%"class.llvm::LiveRange" = type { %"class.llvm::SmallVector.163", %"class.llvm::SmallVector.168", %"class.std::unique_ptr.173" }
%"class.llvm::SmallVector.163" = type { %"class.llvm::SmallVectorImpl.164", %"struct.llvm::SmallVectorStorage.167" }
%"class.llvm::SmallVectorImpl.164" = type { %"class.llvm::SmallVectorTemplateBase.165" }
%"class.llvm::SmallVectorTemplateBase.165" = type { %"class.llvm::SmallVectorTemplateCommon.166" }
%"class.llvm::SmallVectorTemplateCommon.166" = type { %"class.llvm::SmallVectorBase" }
%"struct.llvm::SmallVectorStorage.167" = type { [48 x i8] }
%"class.llvm::SmallVector.168" = type { %"class.llvm::SmallVectorImpl.169", %"struct.llvm::SmallVectorStorage.172" }
%"class.llvm::SmallVectorImpl.169" = type { %"class.llvm::SmallVectorTemplateBase.170" }
%"class.llvm::SmallVectorTemplateBase.170" = type { %"class.llvm::SmallVectorTemplateCommon.171" }
%"class.llvm::SmallVectorTemplateCommon.171" = type { %"class.llvm::SmallVectorBase" }
%"struct.llvm::SmallVectorStorage.172" = type { [16 x i8] }
%"class.std::unique_ptr.173" = type { %"struct.std::__uniq_ptr_data.174" }
%"struct.std::__uniq_ptr_data.174" = type { %"class.std::__uniq_ptr_impl.175" }
%"class.std::__uniq_ptr_impl.175" = type { %"class.std::tuple.176" }
%"class.std::tuple.176" = type { %"struct.std::_Tuple_impl.177" }
%"struct.std::_Tuple_impl.177" = type { %"struct.std::_Head_base.180" }
%"struct.std::_Head_base.180" = type { ptr }

; Function Attrs: mustprogress nounwind uwtable
define linkonce_odr hidden void @_ZN4llvm12LiveInterval9setWeightEf(ptr noundef nonnull align 8 dereferenceable(120) %0, float noundef %1) #0 comdat align 2 {
  %3 = alloca ptr, align 8
  %4 = alloca float, align 4
  store ptr %0, ptr %3, align 8
  store float %1, ptr %4, align 4
  %5 = load ptr, ptr %3, align 8
  %6 = load float, ptr %4, align 4
  %7 = getelementptr inbounds nuw %"class.llvm::LiveInterval", ptr %5, i32 0, i32 3
  store float %6, ptr %7, align 4
  ret void
}

; Function Attrs: mustprogress nounwind uwtable
define dso_local void @_ZN4llvm14VirtRegAuxInfo27calculateSpillWeightAndHintERNS_12LiveIntervalE(ptr noundef nonnull align 8 dereferenceable(48) %0, ptr noundef nonnull align 8 dereferenceable(120) %1) #0 align 2 {
  %3 = alloca ptr, align 8
  %4 = alloca ptr, align 8
  %5 = alloca float, align 4
  store ptr %0, ptr %3, align 8
  store ptr %1, ptr %4, align 8
  %6 = load ptr, ptr %3, align 8
  %7 = load ptr, ptr %4, align 8
  %8 = call noundef float @_ZN4llvm14VirtRegAuxInfo16weightCalcHelperERNS_12LiveIntervalEPNS_9SlotIndexES4_(ptr noundef nonnull align 8 dereferenceable(48) %6, ptr noundef nonnull align 8 dereferenceable(120) %7, ptr noundef null, ptr noundef null)
  store float %8, ptr %5, align 4
  %9 = load float, ptr %5, align 4
  %10 = fcmp olt float %9, 0.000000e+00
  br i1 %10, label %11, label %12

11:                                               ; preds = %2
  br label %15

12:                                               ; preds = %2
  %13 = load ptr, ptr %4, align 8
  %14 = load float, ptr %5, align 4
  call void @_ZN4llvm12LiveInterval9setWeightEf(ptr noundef nonnull align 8 dereferenceable(120) %13, float noundef %14)
  br label %15

15:                                               ; preds = %12, %11
  ret void
}