; Function Attrs: mustprogress nounwind uwtable
define dso_local void @_ZN4llvm14VirtRegAuxInfo27calculateSpillWeightAndHintERNS_12LiveIntervalE(ptr noundef nonnull align 8 dereferenceable(48) %0, ptr noundef nonnull align 8 dereferenceable(120) %1) local_unnamed_addr #0 align 2 {
  %3 = tail call noundef float @_ZN4llvm14VirtRegAuxInfo16weightCalcHelperERNS_12LiveIntervalEPNS_9SlotIndexES4_(ptr noundef nonnull align 8 dereferenceable(48) %0, ptr noundef nonnull align 8 dereferenceable(120) %1, ptr noundef null, ptr noundef null)
  %4 = fcmp olt float %3, 0.000000e+00
  br i1 %4, label %7, label %5

5:                                                ; preds = %2
  %6 = getelementptr inbounds nuw i8, ptr %1, i64 116
  store float %3, ptr %6, align 4
  br label %7

7:                                                ; preds = %2, %5
  ret void
}